target datalayout = "e-m:e-p270:32:32-p271:32:32-p272:64:64-i64:64-i128:128-f80:128-n8:16:32:64-S128"
target triple = "x86_64-pc-linux-gnu"

%class.btUnionFind = type { %class.btAlignedObjectArray }
%class.btAlignedObjectArray = type <{ [4 x i8], i32, i32, [4 x i8], ptr, i8, [7 x i8] }>

; Function Attrs: mustprogress uwtable
define linkonce_odr dso_local void @_ZN18btAlignedAllocatorI9btElementLj16EE10deallocateEPS0_(ptr noundef nonnull align 1 dereferenceable(1) %0, ptr noundef %1) #2 comdat align 2 {
  %3 = alloca ptr, align 8
  %4 = alloca ptr, align 8
  store ptr %0, ptr %3, align 8, !tbaa !35
  store ptr %1, ptr %4, align 8, !tbaa !16
  %5 = load ptr, ptr %4, align 8, !tbaa !16
  call void @_Z21btAlignedFreeInternalPv(ptr noundef %5)
  ret void
}

; Function Attrs: inlinehint mustprogress nounwind uwtable
define linkonce_odr dso_local void @_ZN20btAlignedObjectArrayI9btElementE4initEv(ptr noundef nonnull align 8 dereferenceable(25) %0) #7 comdat align 2 {
  %2 = alloca ptr, align 8
  store ptr %0, ptr %2, align 8, !tbaa !14
  %3 = load ptr, ptr %2, align 8
  %4 = getelementptr inbounds nuw %class.btAlignedObjectArray, ptr %3, i32 0, i32 5
  store i8 1, ptr %4, align 8, !tbaa !37
  %5 = getelementptr inbounds nuw %class.btAlignedObjectArray, ptr %3, i32 0, i32 4
  store ptr null, ptr %5, align 8, !tbaa !20
  %6 = getelementptr inbounds nuw %class.btAlignedObjectArray, ptr %3, i32 0, i32 1
  store i32 0, ptr %6, align 4, !tbaa !26
  %7 = getelementptr inbounds nuw %class.btAlignedObjectArray, ptr %3, i32 0, i32 2
  store i32 0, ptr %7, align 8, !tbaa !38
  ret void
}

; Function Attrs: inlinehint mustprogress uwtable
define linkonce_odr dso_local void @_ZN20btAlignedObjectArrayI9btElementE10deallocateEv(ptr noundef nonnull align 8 dereferenceable(25) %0) #4 comdat align 2 {
  %2 = alloca ptr, align 8
  store ptr %0, ptr %2, align 8, !tbaa !14
  %3 = load ptr, ptr %2, align 8
  %4 = getelementptr inbounds nuw %class.btAlignedObjectArray, ptr %3, i32 0, i32 4
  %5 = load ptr, ptr %4, align 8, !tbaa !20
  %6 = icmp ne ptr %5, null
  br i1 %6, label %7, label %16

7:                                                ; preds = %1
  %8 = getelementptr inbounds nuw %class.btAlignedObjectArray, ptr %3, i32 0, i32 5
  %9 = load i8, ptr %8, align 8, !tbaa !37, !range !41, !noundef !42
  %10 = trunc i8 %9 to i1
  br i1 %10, label %11, label %14

11:                                               ; preds = %7
  %12 = getelementptr inbounds nuw %class.btAlignedObjectArray, ptr %3, i32 0, i32 4
  %13 = load ptr, ptr %12, align 8, !tbaa !20
  call void @_ZN18btAlignedAllocatorI9btElementLj16EE10deallocateEPS0_(ptr noundef nonnull align 1 dereferenceable(1) %3, ptr noundef %13)
  br label %14

14:                                               ; preds = %11, %7
  %15 = getelementptr inbounds nuw %class.btAlignedObjectArray, ptr %3, i32 0, i32 4
  store ptr null, ptr %15, align 8, !tbaa !20
  br label %16

16:                                               ; preds = %14, %1
  ret void
}

; Function Attrs: inlinehint mustprogress nounwind uwtable
define linkonce_odr dso_local void @_ZN20btAlignedObjectArrayI9btElementE7destroyEii(ptr noundef nonnull align 8 dereferenceable(25) %0, i32 noundef %1, i32 noundef %2) #7 comdat align 2 {
  %4 = alloca ptr, align 8
  %5 = alloca i32, align 4
  %6 = alloca i32, align 4
  %7 = alloca i32, align 4
  store ptr %0, ptr %4, align 8, !tbaa !14
  store i32 %1, ptr %5, align 4, !tbaa !9
  store i32 %2, ptr %6, align 4, !tbaa !9
  call void @llvm.lifetime.start.p0(i64 4, ptr %7) #10
  %8 = load i32, ptr %5, align 4, !tbaa !9
  store i32 %8, ptr %7, align 4, !tbaa !9
  br label %9

9:                                                ; preds = %14, %3
  %10 = load i32, ptr %7, align 4, !tbaa !9
  %11 = load i32, ptr %6, align 4, !tbaa !9
  %12 = icmp slt i32 %10, %11
  br i1 %12, label %13, label %17

13:                                               ; preds = %9
  br label %14

14:                                               ; preds = %13
  %15 = load i32, ptr %7, align 4, !tbaa !9
  %16 = add nsw i32 %15, 1
  store i32 %16, ptr %7, align 4, !tbaa !9
  br label %9, !llvm.loop !40

17:                                               ; preds = %9
  call void @llvm.lifetime.end.p0(i64 4, ptr %7) #10
  ret void
}

; Function Attrs: inlinehint mustprogress nounwind uwtable
define linkonce_odr dso_local noundef i32 @_ZNK20btAlignedObjectArrayI9btElementE4sizeEv(ptr noundef nonnull align 8 dereferenceable(25) %0) #7 comdat align 2 {
  %2 = alloca ptr, align 8
  store ptr %0, ptr %2, align 8, !tbaa !14
  %3 = load ptr, ptr %2, align 8
  %4 = getelementptr inbounds nuw %class.btAlignedObjectArray, ptr %3, i32 0, i32 1
  %5 = load i32, ptr %4, align 4, !tbaa !26
  ret i32 %5
}

; Function Attrs: inlinehint mustprogress uwtable
define linkonce_odr dso_local void @_ZN20btAlignedObjectArrayI9btElementE5clearEv(ptr noundef nonnull align 8 dereferenceable(25) %0) #4 comdat align 2 {
  %2 = alloca ptr, align 8
  store ptr %0, ptr %2, align 8, !tbaa !14
  %3 = load ptr, ptr %2, align 8
  %4 = call noundef i32 @_ZNK20btAlignedObjectArrayI9btElementE4sizeEv(ptr noundef nonnull align 8 dereferenceable(25) %3)
  call void @_ZN20btAlignedObjectArrayI9btElementE7destroyEii(ptr noundef nonnull align 8 dereferenceable(25) %3, i32 noundef 0, i32 noundef %4)
  call void @_ZN20btAlignedObjectArrayI9btElementE10deallocateEv(ptr noundef nonnull align 8 dereferenceable(25) %3)
  call void @_ZN20btAlignedObjectArrayI9btElementE4initEv(ptr noundef nonnull align 8 dereferenceable(25) %3)
  ret void
}

; Function Attrs: mustprogress nounwind uwtable
define linkonce_odr dso_local void @_ZN20btAlignedObjectArrayI9btElementED2Ev(ptr noundef nonnull align 8 dereferenceable(25) %0) unnamed_addr #1 comdat align 2 personality ptr @__gxx_personality_v0 {
  %2 = alloca ptr, align 8
  store ptr %0, ptr %2, align 8, !tbaa !14
  %3 = load ptr, ptr %2, align 8
  invoke void @_ZN20btAlignedObjectArrayI9btElementE5clearEv(ptr noundef nonnull align 8 dereferenceable(25) %3)
          to label %4 unwind label %5

4:                                                ; preds = %1
  ret void

5:                                                ; preds = %1
  %6 = landingpad { ptr, i32 }
          catch ptr null
  %7 = extractvalue { ptr, i32 } %6, 0
  call void @__clang_call_terminate(ptr %7) #11
  unreachable
}

; Function Attrs: mustprogress uwtable
define dso_local void @_ZN11btUnionFind4FreeEv(ptr noundef nonnull align 8 dereferenceable(32) %0) #2 align 2 {
  %2 = alloca ptr, align 8
  store ptr %0, ptr %2, align 8, !tbaa !12
  %3 = load ptr, ptr %2, align 8
  %4 = getelementptr inbounds nuw %class.btUnionFind, ptr %3, i32 0, i32 0
  call void @_ZN20btAlignedObjectArrayI9btElementE5clearEv(ptr noundef nonnull align 8 dereferenceable(25) %4)
  ret void
}

; Function Attrs: mustprogress nounwind uwtable
define dso_local void @_ZN11btUnionFindD2Ev(ptr noundef nonnull align 8 dereferenceable(32) %0) unnamed_addr #1 align 2 personality ptr @__gxx_personality_v0 {
  %2 = alloca ptr, align 8
  store ptr %0, ptr %2, align 8, !tbaa !12
  %3 = load ptr, ptr %2, align 8
  invoke void @_ZN11btUnionFind4FreeEv(ptr noundef nonnull align 8 dereferenceable(32) %3)
          to label %4 unwind label %6

4:                                                ; preds = %1
  %5 = getelementptr inbounds nuw %class.btUnionFind, ptr %3, i32 0, i32 0
  call void @_ZN20btAlignedObjectArrayI9btElementED2Ev(ptr noundef nonnull align 8 dereferenceable(25) %5) #10
  ret void

6:                                                ; preds = %1
  %7 = landingpad { ptr, i32 }
          catch ptr null
  %8 = extractvalue { ptr, i32 } %7, 0
  call void @__clang_call_terminate(ptr %8) #11
  unreachable
}